; Function Attrs: mustprogress uwtable
define void @_ZN3zmq8object_t9send_reapEPNS_13socket_base_tE(ptr noundef nonnull readonly align 8 captures(none) dereferenceable(20) %0, ptr noundef %1) local_unnamed_addr #6 align 2 {
  %3 = alloca %"struct.zmq::command_t", align 64
  call void @llvm.lifetime.start.p0(i64 64, ptr nonnull %3) #11
  %4 = getelementptr inbounds nuw i8, ptr %0, i64 8
  %5 = load ptr, ptr %4, align 8, !tbaa !6
  %6 = tail call noundef ptr @_ZNK3zmq5ctx_t10get_reaperEv(ptr noundef nonnull align 8 dereferenceable(648) %5)
  store ptr %6, ptr %3, align 64, !tbaa !20
  %7 = getelementptr inbounds nuw i8, ptr %3, i64 8
  store i32 15, ptr %7, align 8, !tbaa !13
  %8 = getelementptr inbounds nuw i8, ptr %3, i64 16
  store ptr %1, ptr %8, align 16, !tbaa !17
  %9 = load ptr, ptr %4, align 8, !tbaa !6
  %10 = getelementptr inbounds nuw i8, ptr %6, i64 16
  %11 = load i32, ptr %10, align 8, !tbaa !12
  call void @_ZN3zmq5ctx_t12send_commandEjRKNS_9command_tE(ptr noundef nonnull align 8 dereferenceable(648) %9, i32 noundef %11, ptr noundef nonnull align 64 dereferenceable(64) %3)
  call void @llvm.lifetime.end.p0(i64 64, ptr nonnull %3) #11
  ret void
}